target datalayout = "e-m:e-p270:32:32-p271:32:32-p272:64:64-i64:64-i128:128-f80:128-n8:16:32:64-S128"
target triple = "x86_64-pc-linux-gnu"

; Function Attrs: nounwind uwtable
define hidden i32 @ma_spinlock_unlock(ptr noundef %0) #0 {
  %2 = alloca i32, align 4
  %3 = alloca ptr, align 8
  %4 = alloca i32, align 4
  store ptr %0, ptr %3, align 8
  %5 = load ptr, ptr %3, align 8
  %6 = icmp eq ptr %5, null
  br i1 %6, label %7, label %8

7:                                                ; preds = %1
  store i32 -2, ptr %2, align 4
  br label %11

8:                                                ; preds = %1
  %9 = load ptr, ptr %3, align 8
  store i32 0, ptr %4, align 4
  %10 = load i32, ptr %4, align 4
  store atomic volatile i32 %10, ptr %9 release, align 4
  store i32 0, ptr %2, align 4
  br label %11

11:                                               ; preds = %8, %7
  %12 = load i32, ptr %2, align 4
  ret i32 %12
}