; Function Attrs: nofree norecurse nounwind memory(argmem: readwrite, inaccessiblemem: readwrite) uwtable
define hidden range(i32 -2, 1) i32 @ma_spinlock_unlock(ptr noundef %0) local_unnamed_addr #15 {
  %2 = icmp eq ptr %0, null
  br i1 %2, label %4, label %3

3:                                                ; preds = %1
  store atomic volatile i32 0, ptr %0 release, align 4
  br label %4

4:                                                ; preds = %1, %3
  %.0 = phi i32 [ 0, %3 ], [ -2, %1 ]
  ret i32 %.0
}